target datalayout = "e-m:e-p270:32:32-p271:32:32-p272:64:64-i64:64-i128:128-f80:128-n8:16:32:64-S128"
target triple = "x86_64-pc-linux-gnu"

%struct._generic_SUNLinearSolver = type { ptr, ptr, ptr }
%struct._SUNLinearSolverContent_SPFGMR = type { i32, i32, i32, i32, i32, i32, double, i32, ptr, ptr, ptr, ptr, ptr, ptr, ptr, ptr, ptr, ptr, ptr, ptr, ptr, ptr, ptr, ptr }

; Function Attrs: nounwind uwtable
define i32 @SUNLinSolInitialize_SPFGMR(ptr noundef %0) #0 {
  %2 = alloca ptr, align 8
  %3 = alloca ptr, align 8
  %4 = alloca i32, align 4
  %5 = alloca ptr, align 8
  store ptr %0, ptr %2, align 8, !tbaa !12
  call void @llvm.lifetime.start.p0(i64 8, ptr %3) #6
  %6 = load ptr, ptr %2, align 8, !tbaa !12
  %7 = getelementptr inbounds nuw %struct._generic_SUNLinearSolver, ptr %6, i32 0, i32 2
  %8 = load ptr, ptr %7, align 8, !tbaa !66
  store ptr %8, ptr %3, align 8, !tbaa !10
  call void @llvm.lifetime.start.p0(i64 4, ptr %4) #6
  call void @llvm.lifetime.start.p0(i64 8, ptr %5) #6
  %9 = load ptr, ptr %2, align 8, !tbaa !12
  %10 = getelementptr inbounds nuw %struct._generic_SUNLinearSolver, ptr %9, i32 0, i32 0
  %11 = load ptr, ptr %10, align 8, !tbaa !35
  store ptr %11, ptr %5, align 8, !tbaa !33
  %12 = load ptr, ptr %5, align 8, !tbaa !33
  %13 = getelementptr inbounds nuw %struct._SUNLinearSolverContent_SPFGMR, ptr %12, i32 0, i32 3
  %14 = load i32, ptr %13, align 4, !tbaa !45
  %15 = icmp slt i32 %14, 0
  br i1 %15, label %16, label %19

16:                                               ; preds = %1
  %17 = load ptr, ptr %5, align 8, !tbaa !33
  %18 = getelementptr inbounds nuw %struct._SUNLinearSolverContent_SPFGMR, ptr %17, i32 0, i32 3
  store i32 0, ptr %18, align 4, !tbaa !45
  br label %19

19:                                               ; preds = %16, %1
  %20 = load ptr, ptr %5, align 8, !tbaa !33
  %21 = getelementptr inbounds nuw %struct._SUNLinearSolverContent_SPFGMR, ptr %20, i32 0, i32 1
  %22 = load i32, ptr %21, align 4, !tbaa !43
  %23 = icmp ne i32 %22, 1
  br i1 %23, label %24, label %37

24:                                               ; preds = %19
  %25 = load ptr, ptr %5, align 8, !tbaa !33
  %26 = getelementptr inbounds nuw %struct._SUNLinearSolverContent_SPFGMR, ptr %25, i32 0, i32 1
  %27 = load i32, ptr %26, align 4, !tbaa !43
  %28 = icmp ne i32 %27, 2
  br i1 %28, label %29, label %37

29:                                               ; preds = %24
  %30 = load ptr, ptr %5, align 8, !tbaa !33
  %31 = getelementptr inbounds nuw %struct._SUNLinearSolverContent_SPFGMR, ptr %30, i32 0, i32 1
  %32 = load i32, ptr %31, align 4, !tbaa !43
  %33 = icmp ne i32 %32, 3
  br i1 %33, label %34, label %37

34:                                               ; preds = %29
  %35 = load ptr, ptr %5, align 8, !tbaa !33
  %36 = getelementptr inbounds nuw %struct._SUNLinearSolverContent_SPFGMR, ptr %35, i32 0, i32 1
  store i32 0, ptr %36, align 4, !tbaa !43
  br label %37

37:                                               ; preds = %34, %29, %24, %19
  %38 = load ptr, ptr %5, align 8, !tbaa !33
  %39 = getelementptr inbounds nuw %struct._SUNLinearSolverContent_SPFGMR, ptr %38, i32 0, i32 15
  %40 = load ptr, ptr %39, align 8, !tbaa !58
  %41 = icmp eq ptr %40, null
  br i1 %41, label %42, label %53

42:                                               ; preds = %37
  %43 = load ptr, ptr %5, align 8, !tbaa !33
  %44 = getelementptr inbounds nuw %struct._SUNLinearSolverContent_SPFGMR, ptr %43, i32 0, i32 0
  %45 = load i32, ptr %44, align 8, !tbaa !42
  %46 = add nsw i32 %45, 1
  %47 = load ptr, ptr %5, align 8, !tbaa !33
  %48 = getelementptr inbounds nuw %struct._SUNLinearSolverContent_SPFGMR, ptr %47, i32 0, i32 21
  %49 = load ptr, ptr %48, align 8, !tbaa !50
  %50 = call ptr @N_VCloneVectorArray(i32 noundef %46, ptr noundef %49)
  %51 = load ptr, ptr %5, align 8, !tbaa !33
  %52 = getelementptr inbounds nuw %struct._SUNLinearSolverContent_SPFGMR, ptr %51, i32 0, i32 15
  store ptr %50, ptr %52, align 8, !tbaa !58
  br label %53

53:                                               ; preds = %42, %37
  %54 = load ptr, ptr %5, align 8, !tbaa !33
  %55 = getelementptr inbounds nuw %struct._SUNLinearSolverContent_SPFGMR, ptr %54, i32 0, i32 16
  %56 = load ptr, ptr %55, align 8, !tbaa !59
  %57 = icmp eq ptr %56, null
  br i1 %57, label %58, label %69

58:                                               ; preds = %53
  %59 = load ptr, ptr %5, align 8, !tbaa !33
  %60 = getelementptr inbounds nuw %struct._SUNLinearSolverContent_SPFGMR, ptr %59, i32 0, i32 0
  %61 = load i32, ptr %60, align 8, !tbaa !42
  %62 = add nsw i32 %61, 1
  %63 = load ptr, ptr %5, align 8, !tbaa !33
  %64 = getelementptr inbounds nuw %struct._SUNLinearSolverContent_SPFGMR, ptr %63, i32 0, i32 21
  %65 = load ptr, ptr %64, align 8, !tbaa !50
  %66 = call ptr @N_VCloneVectorArray(i32 noundef %62, ptr noundef %65)
  %67 = load ptr, ptr %5, align 8, !tbaa !33
  %68 = getelementptr inbounds nuw %struct._SUNLinearSolverContent_SPFGMR, ptr %67, i32 0, i32 16
  store ptr %66, ptr %68, align 8, !tbaa !59
  br label %69

69:                                               ; preds = %58, %53
  %70 = load ptr, ptr %5, align 8, !tbaa !33
  %71 = getelementptr inbounds nuw %struct._SUNLinearSolverContent_SPFGMR, ptr %70, i32 0, i32 17
  %72 = load ptr, ptr %71, align 8, !tbaa !60
  %73 = icmp eq ptr %72, null
  br i1 %73, label %74, label %113

74:                                               ; preds = %69
  %75 = load ptr, ptr %5, align 8, !tbaa !33
  %76 = getelementptr inbounds nuw %struct._SUNLinearSolverContent_SPFGMR, ptr %75, i32 0, i32 0
  %77 = load i32, ptr %76, align 8, !tbaa !42
  %78 = add nsw i32 %77, 1
  %79 = sext i32 %78 to i64
  %80 = mul i64 %79, 8
  %81 = call noalias ptr @malloc(i64 noundef %80) #7
  %82 = load ptr, ptr %5, align 8, !tbaa !33
  %83 = getelementptr inbounds nuw %struct._SUNLinearSolverContent_SPFGMR, ptr %82, i32 0, i32 17
  store ptr %81, ptr %83, align 8, !tbaa !60
  store i32 0, ptr %4, align 4, !tbaa !8
  br label %84

84:                                               ; preds = %109, %74
  %85 = load i32, ptr %4, align 4, !tbaa !8
  %86 = load ptr, ptr %5, align 8, !tbaa !33
  %87 = getelementptr inbounds nuw %struct._SUNLinearSolverContent_SPFGMR, ptr %86, i32 0, i32 0
  %88 = load i32, ptr %87, align 8, !tbaa !42
  %89 = icmp sle i32 %85, %88
  br i1 %89, label %90, label %112

90:                                               ; preds = %84
  %91 = load ptr, ptr %5, align 8, !tbaa !33
  %92 = getelementptr inbounds nuw %struct._SUNLinearSolverContent_SPFGMR, ptr %91, i32 0, i32 17
  %93 = load ptr, ptr %92, align 8, !tbaa !60
  %94 = load i32, ptr %4, align 4, !tbaa !8
  %95 = sext i32 %94 to i64
  %96 = getelementptr inbounds ptr, ptr %93, i64 %95
  store ptr null, ptr %96, align 8, !tbaa !67
  %97 = load ptr, ptr %5, align 8, !tbaa !33
  %98 = getelementptr inbounds nuw %struct._SUNLinearSolverContent_SPFGMR, ptr %97, i32 0, i32 0
  %99 = load i32, ptr %98, align 8, !tbaa !42
  %100 = sext i32 %99 to i64
  %101 = mul i64 %100, 8
  %102 = call noalias ptr @malloc(i64 noundef %101) #7
  %103 = load ptr, ptr %5, align 8, !tbaa !33
  %104 = getelementptr inbounds nuw %struct._SUNLinearSolverContent_SPFGMR, ptr %103, i32 0, i32 17
  %105 = load ptr, ptr %104, align 8, !tbaa !60
  %106 = load i32, ptr %4, align 4, !tbaa !8
  %107 = sext i32 %106 to i64
  %108 = getelementptr inbounds ptr, ptr %105, i64 %107
  store ptr %102, ptr %108, align 8, !tbaa !67
  br label %109

109:                                              ; preds = %90
  %110 = load i32, ptr %4, align 4, !tbaa !8
  %111 = add nsw i32 %110, 1
  store i32 %111, ptr %4, align 4, !tbaa !8
  br label %84

112:                                              ; preds = %84
  br label %113

113:                                              ; preds = %112, %69
  %114 = load ptr, ptr %5, align 8, !tbaa !33
  %115 = getelementptr inbounds nuw %struct._SUNLinearSolverContent_SPFGMR, ptr %114, i32 0, i32 18
  %116 = load ptr, ptr %115, align 8, !tbaa !61
  %117 = icmp eq ptr %116, null
  br i1 %117, label %118, label %128

118:                                              ; preds = %113
  %119 = load ptr, ptr %5, align 8, !tbaa !33
  %120 = getelementptr inbounds nuw %struct._SUNLinearSolverContent_SPFGMR, ptr %119, i32 0, i32 0
  %121 = load i32, ptr %120, align 8, !tbaa !42
  %122 = mul nsw i32 2, %121
  %123 = sext i32 %122 to i64
  %124 = mul i64 %123, 8
  %125 = call noalias ptr @malloc(i64 noundef %124) #7
  %126 = load ptr, ptr %5, align 8, !tbaa !33
  %127 = getelementptr inbounds nuw %struct._SUNLinearSolverContent_SPFGMR, ptr %126, i32 0, i32 18
  store ptr %125, ptr %127, align 8, !tbaa !61
  br label %128

128:                                              ; preds = %118, %113
  %129 = load ptr, ptr %5, align 8, !tbaa !33
  %130 = getelementptr inbounds nuw %struct._SUNLinearSolverContent_SPFGMR, ptr %129, i32 0, i32 20
  %131 = load ptr, ptr %130, align 8, !tbaa !62
  %132 = icmp eq ptr %131, null
  br i1 %132, label %133, label %143

133:                                              ; preds = %128
  %134 = load ptr, ptr %5, align 8, !tbaa !33
  %135 = getelementptr inbounds nuw %struct._SUNLinearSolverContent_SPFGMR, ptr %134, i32 0, i32 0
  %136 = load i32, ptr %135, align 8, !tbaa !42
  %137 = add nsw i32 %136, 1
  %138 = sext i32 %137 to i64
  %139 = mul i64 %138, 8
  %140 = call noalias ptr @malloc(i64 noundef %139) #7
  %141 = load ptr, ptr %5, align 8, !tbaa !33
  %142 = getelementptr inbounds nuw %struct._SUNLinearSolverContent_SPFGMR, ptr %141, i32 0, i32 20
  store ptr %140, ptr %142, align 8, !tbaa !62
  br label %143

143:                                              ; preds = %133, %128
  %144 = load ptr, ptr %5, align 8, !tbaa !33
  %145 = getelementptr inbounds nuw %struct._SUNLinearSolverContent_SPFGMR, ptr %144, i32 0, i32 22
  %146 = load ptr, ptr %145, align 8, !tbaa !63
  %147 = icmp eq ptr %146, null
  br i1 %147, label %148, label %158

148:                                              ; preds = %143
  %149 = load ptr, ptr %5, align 8, !tbaa !33
  %150 = getelementptr inbounds nuw %struct._SUNLinearSolverContent_SPFGMR, ptr %149, i32 0, i32 0
  %151 = load i32, ptr %150, align 8, !tbaa !42
  %152 = add nsw i32 %151, 1
  %153 = sext i32 %152 to i64
  %154 = mul i64 %153, 8
  %155 = call noalias ptr @malloc(i64 noundef %154) #7
  %156 = load ptr, ptr %5, align 8, !tbaa !33
  %157 = getelementptr inbounds nuw %struct._SUNLinearSolverContent_SPFGMR, ptr %156, i32 0, i32 22
  store ptr %155, ptr %157, align 8, !tbaa !63
  br label %158

158:                                              ; preds = %148, %143
  %159 = load ptr, ptr %5, align 8, !tbaa !33
  %160 = getelementptr inbounds nuw %struct._SUNLinearSolverContent_SPFGMR, ptr %159, i32 0, i32 23
  %161 = load ptr, ptr %160, align 8, !tbaa !64
  %162 = icmp eq ptr %161, null
  br i1 %162, label %163, label %173

163:                                              ; preds = %158
  %164 = load ptr, ptr %5, align 8, !tbaa !33
  %165 = getelementptr inbounds nuw %struct._SUNLinearSolverContent_SPFGMR, ptr %164, i32 0, i32 0
  %166 = load i32, ptr %165, align 8, !tbaa !42
  %167 = add nsw i32 %166, 1
  %168 = sext i32 %167 to i64
  %169 = mul i64 %168, 8
  %170 = call noalias ptr @malloc(i64 noundef %169) #7
  %171 = load ptr, ptr %5, align 8, !tbaa !33
  %172 = getelementptr inbounds nuw %struct._SUNLinearSolverContent_SPFGMR, ptr %171, i32 0, i32 23
  store ptr %170, ptr %172, align 8, !tbaa !64
  br label %173

173:                                              ; preds = %163, %158
  call void @llvm.lifetime.end.p0(i64 8, ptr %5) #6
  call void @llvm.lifetime.end.p0(i64 4, ptr %4) #6
  call void @llvm.lifetime.end.p0(i64 8, ptr %3) #6
  ret i32 0
}