; Function Attrs: nounwind uwtable
define noundef i32 @SUNLinSolInitialize_SPFGMR(ptr noundef readonly captures(none) %0) #0 {
  %2 = load ptr, ptr %0, align 8, !tbaa !26
  %3 = getelementptr inbounds nuw i8, ptr %2, i64 12
  %4 = load i32, ptr %3, align 4, !tbaa !48
  %5 = icmp slt i32 %4, 0
  br i1 %5, label %6, label %7

6:                                                ; preds = %1
  store i32 0, ptr %3, align 4, !tbaa !48
  br label %7

7:                                                ; preds = %6, %1
  %8 = getelementptr inbounds nuw i8, ptr %2, i64 4
  %9 = load i32, ptr %8, align 4, !tbaa !36
  %.off = add i32 %9, -1
  %switch = icmp ult i32 %.off, 3
  br i1 %switch, label %11, label %10

10:                                               ; preds = %7
  store i32 0, ptr %8, align 4, !tbaa !36
  br label %11

11:                                               ; preds = %7, %10
  %12 = getelementptr inbounds nuw i8, ptr %2, i64 96
  %13 = load ptr, ptr %12, align 8, !tbaa !49
  %14 = icmp eq ptr %13, null
  br i1 %14, label %15, label %21

15:                                               ; preds = %11
  %16 = load i32, ptr %2, align 8, !tbaa !35
  %17 = add nsw i32 %16, 1
  %18 = getelementptr inbounds nuw i8, ptr %2, i64 144
  %19 = load ptr, ptr %18, align 8, !tbaa !39
  %20 = tail call ptr @N_VCloneVectorArray(i32 noundef %17, ptr noundef %19) #12
  store ptr %20, ptr %12, align 8, !tbaa !49
  br label %21

21:                                               ; preds = %15, %11
  %22 = getelementptr inbounds nuw i8, ptr %2, i64 104
  %23 = load ptr, ptr %22, align 8, !tbaa !50
  %24 = icmp eq ptr %23, null
  br i1 %24, label %25, label %31

25:                                               ; preds = %21
  %26 = load i32, ptr %2, align 8, !tbaa !35
  %27 = add nsw i32 %26, 1
  %28 = getelementptr inbounds nuw i8, ptr %2, i64 144
  %29 = load ptr, ptr %28, align 8, !tbaa !39
  %30 = tail call ptr @N_VCloneVectorArray(i32 noundef %27, ptr noundef %29) #12
  store ptr %30, ptr %22, align 8, !tbaa !50
  br label %31

31:                                               ; preds = %25, %21
  %32 = getelementptr inbounds nuw i8, ptr %2, i64 112
  %33 = load ptr, ptr %32, align 8, !tbaa !51
  %34 = icmp eq ptr %33, null
  br i1 %34, label %35, label %.loopexit

35:                                               ; preds = %31
  %36 = load i32, ptr %2, align 8, !tbaa !35
  %37 = add i32 %36, 1
  %38 = sext i32 %37 to i64
  %39 = shl nsw i64 %38, 3
  %40 = tail call noalias ptr @malloc(i64 noundef %39) #13
  store ptr %40, ptr %32, align 8, !tbaa !51
  %.not4142 = icmp slt i32 %36, 0
  br i1 %.not4142, label %.loopexit, label %.lr.ph

.lr.ph:                                           ; preds = %35
  %41 = zext nneg i32 %36 to i64
  %42 = shl nuw nsw i64 %41, 3
  %wide.trip.count = zext i32 %37 to i64
  br label %43

43:                                               ; preds = %.lr.ph, %43
  %indvars.iv = phi i64 [ 0, %.lr.ph ], [ %indvars.iv.next, %43 ]
  %44 = getelementptr inbounds nuw ptr, ptr %40, i64 %indvars.iv
  %45 = tail call noalias ptr @malloc(i64 noundef %42) #13
  store ptr %45, ptr %44, align 8, !tbaa !52
  %indvars.iv.next = add nuw nsw i64 %indvars.iv, 1
  %exitcond.not = icmp eq i64 %indvars.iv.next, %wide.trip.count
  br i1 %exitcond.not, label %.loopexit, label %43

.loopexit:                                        ; preds = %43, %35, %31
  %46 = getelementptr inbounds nuw i8, ptr %2, i64 120
  %47 = load ptr, ptr %46, align 8, !tbaa !53
  %48 = icmp eq ptr %47, null
  br i1 %48, label %49, label %55

49:                                               ; preds = %.loopexit
  %50 = load i32, ptr %2, align 8, !tbaa !35
  %51 = shl nsw i32 %50, 1
  %52 = sext i32 %51 to i64
  %53 = shl nsw i64 %52, 3
  %54 = tail call noalias ptr @malloc(i64 noundef %53) #13
  store ptr %54, ptr %46, align 8, !tbaa !53
  br label %55

55:                                               ; preds = %49, %.loopexit
  %56 = getelementptr inbounds nuw i8, ptr %2, i64 136
  %57 = load ptr, ptr %56, align 8, !tbaa !54
  %58 = icmp eq ptr %57, null
  br i1 %58, label %59, label %65

59:                                               ; preds = %55
  %60 = load i32, ptr %2, align 8, !tbaa !35
  %61 = add nsw i32 %60, 1
  %62 = sext i32 %61 to i64
  %63 = shl nsw i64 %62, 3
  %64 = tail call noalias ptr @malloc(i64 noundef %63) #13
  store ptr %64, ptr %56, align 8, !tbaa !54
  br label %65

65:                                               ; preds = %59, %55
  %66 = getelementptr inbounds nuw i8, ptr %2, i64 152
  %67 = load ptr, ptr %66, align 8, !tbaa !55
  %68 = icmp eq ptr %67, null
  br i1 %68, label %69, label %75

69:                                               ; preds = %65
  %70 = load i32, ptr %2, align 8, !tbaa !35
  %71 = add nsw i32 %70, 1
  %72 = sext i32 %71 to i64
  %73 = shl nsw i64 %72, 3
  %74 = tail call noalias ptr @malloc(i64 noundef %73) #13
  store ptr %74, ptr %66, align 8, !tbaa !55
  br label %75

75:                                               ; preds = %69, %65
  %76 = getelementptr inbounds nuw i8, ptr %2, i64 160
  %77 = load ptr, ptr %76, align 8, !tbaa !56
  %78 = icmp eq ptr %77, null
  br i1 %78, label %79, label %85

79:                                               ; preds = %75
  %80 = load i32, ptr %2, align 8, !tbaa !35
  %81 = add nsw i32 %80, 1
  %82 = sext i32 %81 to i64
  %83 = shl nsw i64 %82, 3
  %84 = tail call noalias ptr @malloc(i64 noundef %83) #13
  store ptr %84, ptr %76, align 8, !tbaa !56
  br label %85

85:                                               ; preds = %79, %75
  ret i32 0
}